target datalayout = "e-m:e-p270:32:32-p271:32:32-p272:64:64-i64:64-i128:128-f80:128-n8:16:32:64-S128"
target triple = "x86_64-pc-linux-gnu"

%"struct.cv::softdouble" = type { i64 }
%"class.(anonymous namespace)::interpolationLinear.90" = type <{ %"struct.cv::softdouble", i32, i32, i32, [4 x i8] }>
%"class.(anonymous namespace)::ufixedpoint32" = type { i32 }
%union.Cv64suf = type { i64 }

; Function Attrs: mustprogress nounwind uwtable
define internal void @_ZN12_GLOBAL__N_113ufixedpoint32C2Ej(ptr noundef nonnull align 4 dereferenceable(4) %0, i32 noundef %1) unnamed_addr #4 align 2 {
  %3 = alloca ptr, align 8
  %4 = alloca i32, align 4
  store ptr %0, ptr %3, align 8, !tbaa !75
  store i32 %1, ptr %4, align 4, !tbaa !3
  %5 = load ptr, ptr %3, align 8
  %6 = getelementptr inbounds nuw %"class.(anonymous namespace)::ufixedpoint32", ptr %5, i32 0, i32 0
  %7 = load i32, ptr %4, align 4, !tbaa !3
  store i32 %7, ptr %6, align 4, !tbaa !976
  ret void
}

; Function Attrs: inlinehint mustprogress nounwind uwtable
define linkonce_odr hidden noundef zeroext i1 @_ZNK2cv10softdouble7getSignEv(ptr noundef nonnull align 8 dereferenceable(8) %0) #5 comdat align 2 {
  %2 = alloca ptr, align 8
  store ptr %0, ptr %2, align 8, !tbaa !960
  %3 = load ptr, ptr %2, align 8
  %4 = getelementptr inbounds nuw %"struct.cv::softdouble", ptr %3, i32 0, i32 0
  %5 = load i64, ptr %4, align 8, !tbaa !962
  %6 = lshr i64 %5, 63
  %7 = icmp ne i64 %6, 0
  ret i1 %7
}

; Function Attrs: inlinehint mustprogress nounwind uwtable
define linkonce_odr noundef nonnull align 4 dereferenceable(4) ptr @_ZSt3maxIiERKT_S2_S2_(ptr noundef nonnull align 4 dereferenceable(4) %0, ptr noundef nonnull align 4 dereferenceable(4) %1) #5 comdat {
  %3 = alloca ptr, align 8
  %4 = alloca ptr, align 8
  %5 = alloca ptr, align 8
  store ptr %0, ptr %4, align 8, !tbaa !22
  store ptr %1, ptr %5, align 8, !tbaa !22
  %6 = load ptr, ptr %4, align 8, !tbaa !22
  %7 = load i32, ptr %6, align 4, !tbaa !3
  %8 = load ptr, ptr %5, align 8, !tbaa !22
  %9 = load i32, ptr %8, align 4, !tbaa !3
  %10 = icmp slt i32 %7, %9
  br i1 %10, label %11, label %13

11:                                               ; preds = %2
  %12 = load ptr, ptr %5, align 8, !tbaa !22
  store ptr %12, ptr %3, align 8
  br label %15

13:                                               ; preds = %2
  %14 = load ptr, ptr %4, align 8, !tbaa !22
  store ptr %14, ptr %3, align 8
  br label %15

15:                                               ; preds = %13, %11
  %16 = load ptr, ptr %3, align 8
  ret ptr %16
}

; Function Attrs: inlinehint mustprogress nounwind uwtable
define linkonce_odr noundef nonnull align 4 dereferenceable(4) ptr @_ZSt3minIiERKT_S2_S2_(ptr noundef nonnull align 4 dereferenceable(4) %0, ptr noundef nonnull align 4 dereferenceable(4) %1) #5 comdat {
  %3 = alloca ptr, align 8
  %4 = alloca ptr, align 8
  %5 = alloca ptr, align 8
  store ptr %0, ptr %4, align 8, !tbaa !22
  store ptr %1, ptr %5, align 8, !tbaa !22
  %6 = load ptr, ptr %5, align 8, !tbaa !22
  %7 = load i32, ptr %6, align 4, !tbaa !3
  %8 = load ptr, ptr %4, align 8, !tbaa !22
  %9 = load i32, ptr %8, align 4, !tbaa !3
  %10 = icmp slt i32 %7, %9
  br i1 %10, label %11, label %13

11:                                               ; preds = %2
  %12 = load ptr, ptr %5, align 8, !tbaa !22
  store ptr %12, ptr %3, align 8
  br label %15

13:                                               ; preds = %2
  %14 = load ptr, ptr %4, align 8, !tbaa !22
  store ptr %14, ptr %3, align 8
  br label %15

15:                                               ; preds = %13, %11
  %16 = load ptr, ptr %3, align 8
  ret ptr %16
}

; Function Attrs: alwaysinline mustprogress nounwind uwtable
define internal noundef nonnull align 4 dereferenceable(4) ptr @_ZN12_GLOBAL__N_113ufixedpoint32aSERKS0_(ptr noundef nonnull align 4 dereferenceable(4) %0, ptr noundef nonnull align 4 dereferenceable(4) %1) #16 align 2 {
  %3 = alloca ptr, align 8
  %4 = alloca ptr, align 8
  store ptr %0, ptr %3, align 8, !tbaa !75
  store ptr %1, ptr %4, align 8, !tbaa !75
  %5 = load ptr, ptr %3, align 8
  %6 = load ptr, ptr %4, align 8, !tbaa !75
  %7 = getelementptr inbounds nuw %"class.(anonymous namespace)::ufixedpoint32", ptr %6, i32 0, i32 0
  %8 = load i32, ptr %7, align 4, !tbaa !976
  %9 = getelementptr inbounds nuw %"class.(anonymous namespace)::ufixedpoint32", ptr %5, i32 0, i32 0
  store i32 %8, ptr %9, align 4, !tbaa !976
  ret ptr %5
}

; Function Attrs: alwaysinline mustprogress uwtable
define internal void @_ZNK12_GLOBAL__N_113ufixedpoint32miERKS0_(ptr dead_on_unwind noalias writable sret(%"class.(anonymous namespace)::ufixedpoint32") align 4 %0, ptr noundef nonnull align 4 dereferenceable(4) %1, ptr noundef nonnull align 4 dereferenceable(4) %2) #18 align 2 {
  %4 = alloca ptr, align 8
  %5 = alloca ptr, align 8
  %6 = alloca ptr, align 8
  store ptr %0, ptr %4, align 8
  store ptr %1, ptr %5, align 8, !tbaa !75
  store ptr %2, ptr %6, align 8, !tbaa !75
  %7 = load ptr, ptr %5, align 8
  %8 = getelementptr inbounds nuw %"class.(anonymous namespace)::ufixedpoint32", ptr %7, i32 0, i32 0
  %9 = load i32, ptr %8, align 4, !tbaa !976
  %10 = load ptr, ptr %6, align 8, !tbaa !75
  %11 = getelementptr inbounds nuw %"class.(anonymous namespace)::ufixedpoint32", ptr %10, i32 0, i32 0
  %12 = load i32, ptr %11, align 4, !tbaa !976
  %13 = icmp ugt i32 %9, %12
  br i1 %13, label %14, label %21

14:                                               ; preds = %3
  %15 = getelementptr inbounds nuw %"class.(anonymous namespace)::ufixedpoint32", ptr %7, i32 0, i32 0
  %16 = load i32, ptr %15, align 4, !tbaa !976
  %17 = load ptr, ptr %6, align 8, !tbaa !75
  %18 = getelementptr inbounds nuw %"class.(anonymous namespace)::ufixedpoint32", ptr %17, i32 0, i32 0
  %19 = load i32, ptr %18, align 4, !tbaa !976
  %20 = sub i32 %16, %19
  br label %22

21:                                               ; preds = %3
  br label %22

22:                                               ; preds = %21, %14
  %23 = phi i32 [ %20, %14 ], [ 0, %21 ]
  call void @_ZN12_GLOBAL__N_113ufixedpoint32C2Ej(ptr noundef nonnull align 4 dereferenceable(4) %0, i32 noundef %23)
  ret void
}

; Function Attrs: alwaysinline mustprogress uwtable
define internal void @_ZN12_GLOBAL__N_113ufixedpoint323oneEv(ptr dead_on_unwind noalias writable sret(%"class.(anonymous namespace)::ufixedpoint32") align 4 %0) #18 align 2 {
  %2 = alloca ptr, align 8
  store ptr %0, ptr %2, align 8
  call void @_ZN12_GLOBAL__N_113ufixedpoint32C2Ej(ptr noundef nonnull align 4 dereferenceable(4) %0, i32 noundef 65536)
  ret void
}

; Function Attrs: alwaysinline mustprogress uwtable
define internal noundef nonnull align 4 dereferenceable(4) ptr @_ZN12_GLOBAL__N_113ufixedpoint32aSERKN2cv10softdoubleE(ptr noundef nonnull align 4 dereferenceable(4) %0, ptr noundef nonnull align 8 dereferenceable(8) %1) #18 align 2 {
  %3 = alloca ptr, align 8
  %4 = alloca ptr, align 8
  %5 = alloca %"struct.cv::softdouble", align 8
  %6 = alloca %"struct.cv::softdouble", align 8
  store ptr %0, ptr %3, align 8, !tbaa !75
  store ptr %1, ptr %4, align 8, !tbaa !960
  %7 = load ptr, ptr %3, align 8
  %8 = load ptr, ptr %4, align 8, !tbaa !960
  %9 = call noundef zeroext i1 @_ZNK2cv10softdouble7getSignEv(ptr noundef nonnull align 8 dereferenceable(8) %8)
  call void @llvm.lifetime.start.p0(i64 8, ptr %5) #19
  call void @llvm.lifetime.start.p0(i64 8, ptr %6) #19
  br i1 %9, label %10, label %11

10:                                               ; preds = %2
  br label %14

11:                                               ; preds = %2
  %12 = load ptr, ptr %4, align 8, !tbaa !960
  call void @_ZN2cv10softdoubleC1Ei(ptr noundef nonnull align 8 dereferenceable(8) %6, i32 noundef 65536)
  call void @_ZNK2cv10softdoublemlERKS0_(ptr dead_on_unwind writable sret(%"struct.cv::softdouble") align 8 %5, ptr noundef nonnull align 8 dereferenceable(8) %12, ptr noundef nonnull align 8 dereferenceable(8) %6)
  %13 = call noundef i32 @_Z7cvRoundRKN2cv10softdoubleE(ptr noundef nonnull align 8 dereferenceable(8) %5)
  br label %14

14:                                               ; preds = %11, %10
  %15 = phi i32 [ 0, %10 ], [ %13, %11 ]
  %16 = getelementptr inbounds nuw %"class.(anonymous namespace)::ufixedpoint32", ptr %7, i32 0, i32 0
  store i32 %15, ptr %16, align 4, !tbaa !976
  call void @llvm.lifetime.end.p0(i64 8, ptr %6) #19
  call void @llvm.lifetime.end.p0(i64 8, ptr %5) #19
  ret ptr %7
}

; Function Attrs: mustprogress nounwind uwtable
define linkonce_odr hidden void @_ZN2cv10softdoubleC2Ed(ptr noundef nonnull align 8 dereferenceable(8) %0, double noundef %1) unnamed_addr #4 comdat align 2 {
  %3 = alloca ptr, align 8
  %4 = alloca double, align 8
  %5 = alloca %union.Cv64suf, align 8
  store ptr %0, ptr %3, align 8, !tbaa !960
  store double %1, ptr %4, align 8, !tbaa !12
  %6 = load ptr, ptr %3, align 8
  call void @llvm.lifetime.start.p0(i64 8, ptr %5) #19
  %7 = load double, ptr %4, align 8, !tbaa !12
  store double %7, ptr %5, align 8, !tbaa !127
  %8 = load i64, ptr %5, align 8, !tbaa !127
  %9 = getelementptr inbounds nuw %"struct.cv::softdouble", ptr %6, i32 0, i32 0
  store i64 %8, ptr %9, align 8, !tbaa !962
  call void @llvm.lifetime.end.p0(i64 8, ptr %5) #19
  ret void
}

; Function Attrs: mustprogress uwtable
define internal void @_ZN12_GLOBAL__N_119interpolationLinearItE9getCoeffsEiPiPNS_13ufixedpoint32E(ptr noundef nonnull align 8 dereferenceable(20) %0, i32 noundef %1, ptr noundef %2, ptr noundef %3) #0 align 2 {
  %5 = alloca ptr, align 8
  %6 = alloca i32, align 4
  %7 = alloca ptr, align 8
  %8 = alloca ptr, align 8
  %9 = alloca %"struct.cv::softdouble", align 8
  %10 = alloca %"struct.cv::softdouble", align 8
  %11 = alloca %"struct.cv::softdouble", align 8
  %12 = alloca %"struct.cv::softdouble", align 8
  %13 = alloca %"struct.cv::softdouble", align 8
  %14 = alloca %"struct.cv::softdouble", align 8
  %15 = alloca i32, align 4
  %16 = alloca %"struct.cv::softdouble", align 8
  %17 = alloca %"struct.cv::softdouble", align 8
  %18 = alloca %"class.(anonymous namespace)::ufixedpoint32", align 4
  %19 = alloca %"class.(anonymous namespace)::ufixedpoint32", align 4
  %20 = alloca i32, align 4
  store ptr %0, ptr %5, align 8, !tbaa !1067
  store i32 %1, ptr %6, align 4, !tbaa !3
  store ptr %2, ptr %7, align 8, !tbaa !22
  store ptr %3, ptr %8, align 8, !tbaa !75
  %21 = load ptr, ptr %5, align 8
  call void @llvm.lifetime.start.p0(i64 8, ptr %9) #19
  call void @llvm.lifetime.start.p0(i64 8, ptr %10) #19
  %22 = getelementptr inbounds nuw %"class.(anonymous namespace)::interpolationLinear.90", ptr %21, i32 0, i32 0
  call void @llvm.lifetime.start.p0(i64 8, ptr %11) #19
  call void @llvm.lifetime.start.p0(i64 8, ptr %12) #19
  %23 = load i32, ptr %6, align 4, !tbaa !3
  call void @_ZN2cv10softdoubleC1Ei(ptr noundef nonnull align 8 dereferenceable(8) %12, i32 noundef %23)
  call void @llvm.lifetime.start.p0(i64 8, ptr %13) #19
  call void @_ZN2cv10softdoubleC2Ed(ptr noundef nonnull align 8 dereferenceable(8) %13, double noundef 5.000000e-01)
  call void @_ZNK2cv10softdoubleplERKS0_(ptr dead_on_unwind writable sret(%"struct.cv::softdouble") align 8 %11, ptr noundef nonnull align 8 dereferenceable(8) %12, ptr noundef nonnull align 8 dereferenceable(8) %13)
  call void @_ZNK2cv10softdoublemlERKS0_(ptr dead_on_unwind writable sret(%"struct.cv::softdouble") align 8 %10, ptr noundef nonnull align 8 dereferenceable(8) %22, ptr noundef nonnull align 8 dereferenceable(8) %11)
  call void @llvm.lifetime.start.p0(i64 8, ptr %14) #19
  call void @_ZN2cv10softdoubleC2Ed(ptr noundef nonnull align 8 dereferenceable(8) %14, double noundef 5.000000e-01)
  call void @_ZNK2cv10softdoublemiERKS0_(ptr dead_on_unwind writable sret(%"struct.cv::softdouble") align 8 %9, ptr noundef nonnull align 8 dereferenceable(8) %10, ptr noundef nonnull align 8 dereferenceable(8) %14)
  call void @llvm.lifetime.end.p0(i64 8, ptr %14) #19
  call void @llvm.lifetime.end.p0(i64 8, ptr %13) #19
  call void @llvm.lifetime.end.p0(i64 8, ptr %12) #19
  call void @llvm.lifetime.end.p0(i64 8, ptr %11) #19
  call void @llvm.lifetime.end.p0(i64 8, ptr %10) #19
  call void @llvm.lifetime.start.p0(i64 4, ptr %15) #19
  %24 = call noundef i32 @_Z7cvFloorRKN2cv10softdoubleE(ptr noundef nonnull align 8 dereferenceable(8) %9)
  store i32 %24, ptr %15, align 4, !tbaa !3
  %25 = load i32, ptr %15, align 4, !tbaa !3
  %26 = icmp sge i32 %25, 0
  br i1 %26, label %27, label %59

27:                                               ; preds = %4
  %28 = getelementptr inbounds nuw %"class.(anonymous namespace)::interpolationLinear.90", ptr %21, i32 0, i32 1
  %29 = load i32, ptr %28, align 8, !tbaa !1069
  %30 = icmp sgt i32 %29, 1
  br i1 %30, label %31, label %59

31:                                               ; preds = %27
  %32 = load i32, ptr %15, align 4, !tbaa !3
  %33 = getelementptr inbounds nuw %"class.(anonymous namespace)::interpolationLinear.90", ptr %21, i32 0, i32 1
  %34 = load i32, ptr %33, align 8, !tbaa !1069
  %35 = sub nsw i32 %34, 1
  %36 = icmp slt i32 %32, %35
  br i1 %36, label %37, label %49

37:                                               ; preds = %31
  %38 = load i32, ptr %15, align 4, !tbaa !3
  %39 = load ptr, ptr %7, align 8, !tbaa !22
  store i32 %38, ptr %39, align 4, !tbaa !3
  call void @llvm.lifetime.start.p0(i64 8, ptr %16) #19
  call void @llvm.lifetime.start.p0(i64 8, ptr %17) #19
  %40 = load i32, ptr %15, align 4, !tbaa !3
  call void @_ZN2cv10softdoubleC1Ei(ptr noundef nonnull align 8 dereferenceable(8) %17, i32 noundef %40)
  call void @_ZNK2cv10softdoublemiERKS0_(ptr dead_on_unwind writable sret(%"struct.cv::softdouble") align 8 %16, ptr noundef nonnull align 8 dereferenceable(8) %9, ptr noundef nonnull align 8 dereferenceable(8) %17)
  %41 = load ptr, ptr %8, align 8, !tbaa !75
  %42 = getelementptr inbounds %"class.(anonymous namespace)::ufixedpoint32", ptr %41, i64 1
  %43 = call noundef nonnull align 4 dereferenceable(4) ptr @_ZN12_GLOBAL__N_113ufixedpoint32aSERKN2cv10softdoubleE(ptr noundef nonnull align 4 dereferenceable(4) %42, ptr noundef nonnull align 8 dereferenceable(8) %16)
  call void @llvm.lifetime.end.p0(i64 8, ptr %17) #19
  call void @llvm.lifetime.end.p0(i64 8, ptr %16) #19
  call void @llvm.lifetime.start.p0(i64 4, ptr %18) #19
  call void @llvm.lifetime.start.p0(i64 4, ptr %19) #19
  call void @_ZN12_GLOBAL__N_113ufixedpoint323oneEv(ptr dead_on_unwind writable sret(%"class.(anonymous namespace)::ufixedpoint32") align 4 %19)
  %44 = load ptr, ptr %8, align 8, !tbaa !75
  %45 = getelementptr inbounds %"class.(anonymous namespace)::ufixedpoint32", ptr %44, i64 1
  call void @_ZNK12_GLOBAL__N_113ufixedpoint32miERKS0_(ptr dead_on_unwind writable sret(%"class.(anonymous namespace)::ufixedpoint32") align 4 %18, ptr noundef nonnull align 4 dereferenceable(4) %19, ptr noundef nonnull align 4 dereferenceable(4) %45)
  %46 = load ptr, ptr %8, align 8, !tbaa !75
  %47 = getelementptr inbounds %"class.(anonymous namespace)::ufixedpoint32", ptr %46, i64 0
  %48 = call noundef nonnull align 4 dereferenceable(4) ptr @_ZN12_GLOBAL__N_113ufixedpoint32aSERKS0_(ptr noundef nonnull align 4 dereferenceable(4) %47, ptr noundef nonnull align 4 dereferenceable(4) %18)
  call void @llvm.lifetime.end.p0(i64 4, ptr %19) #19
  call void @llvm.lifetime.end.p0(i64 4, ptr %18) #19
  br label %58

49:                                               ; preds = %31
  %50 = getelementptr inbounds nuw %"class.(anonymous namespace)::interpolationLinear.90", ptr %21, i32 0, i32 1
  %51 = load i32, ptr %50, align 8, !tbaa !1069
  %52 = sub nsw i32 %51, 1
  %53 = load ptr, ptr %7, align 8, !tbaa !22
  store i32 %52, ptr %53, align 4, !tbaa !3
  %54 = getelementptr inbounds nuw %"class.(anonymous namespace)::interpolationLinear.90", ptr %21, i32 0, i32 3
  %55 = call noundef nonnull align 4 dereferenceable(4) ptr @_ZSt3minIiERKT_S2_S2_(ptr noundef nonnull align 4 dereferenceable(4) %54, ptr noundef nonnull align 4 dereferenceable(4) %6)
  %56 = load i32, ptr %55, align 4, !tbaa !3
  %57 = getelementptr inbounds nuw %"class.(anonymous namespace)::interpolationLinear.90", ptr %21, i32 0, i32 3
  store i32 %56, ptr %57, align 8, !tbaa !1072
  br label %58

58:                                               ; preds = %49, %37
  br label %66

59:                                               ; preds = %27, %4
  %60 = getelementptr inbounds nuw %"class.(anonymous namespace)::interpolationLinear.90", ptr %21, i32 0, i32 2
  call void @llvm.lifetime.start.p0(i64 4, ptr %20) #19
  %61 = load i32, ptr %6, align 4, !tbaa !3
  %62 = add nsw i32 %61, 1
  store i32 %62, ptr %20, align 4, !tbaa !3
  %63 = call noundef nonnull align 4 dereferenceable(4) ptr @_ZSt3maxIiERKT_S2_S2_(ptr noundef nonnull align 4 dereferenceable(4) %60, ptr noundef nonnull align 4 dereferenceable(4) %20)
  %64 = load i32, ptr %63, align 4, !tbaa !3
  %65 = getelementptr inbounds nuw %"class.(anonymous namespace)::interpolationLinear.90", ptr %21, i32 0, i32 2
  store i32 %64, ptr %65, align 4, !tbaa !1071
  call void @llvm.lifetime.end.p0(i64 4, ptr %20) #19
  br label %66

66:                                               ; preds = %59, %58
  call void @llvm.lifetime.end.p0(i64 4, ptr %15) #19
  call void @llvm.lifetime.end.p0(i64 8, ptr %9) #19
  ret void
}